target datalayout = "e-m:e-p270:32:32-p271:32:32-p272:64:64-i64:64-i128:128-f80:128-n8:16:32:64-S128"
target triple = "x86_64-unknown-linux-gnu"

%struct.QemuTextConsole = type { %struct.QemuConsole, i32, i32, i32, i32, i32, i32, i32, i32, ptr, [2 x i32], [2 x i32], i32, i32, i32, i32, i32, i32, ptr, %struct.Fifo8 }
%struct.QemuConsole = type { %struct.Object, i32, ptr, ptr, %struct.DisplayScanout, i32, ptr, i32, ptr, i32, %struct.QemuUIInfo, ptr, ptr, ptr, %struct.CoQueue, %union.anon.0 }
%struct.Object = type { ptr, ptr, ptr, i32, ptr }
%struct.DisplayScanout = type { i32, %union.anon }
%union.anon = type { %struct.ScanoutTexture }
%struct.ScanoutTexture = type { i32, i8, i32, i32, i32, i32, i32, i32, ptr }
%struct.QemuUIInfo = type { i16, i16, i32, i32, i32, i32, i32 }
%struct.CoQueue = type { %struct.anon }
%struct.anon = type { ptr, ptr }
%union.anon.0 = type { %struct.QTailQLink }
%struct.QTailQLink = type { ptr, ptr }
%struct.Fifo8 = type { ptr, i32, i32, i32 }
%struct.Chardev = type { %struct.Object, %struct.QemuMutex, ptr, ptr, ptr, i32, i32, i8, ptr, ptr, [1 x i64] }
%struct.QemuMutex = type { %union.pthread_mutex_t, i8 }
%union.pthread_mutex_t = type { %struct.__pthread_mutex_s }
%struct.__pthread_mutex_s = type { i32, i32, i32, i32, i32, i16, i16, %struct.__pthread_internal_list }
%struct.__pthread_internal_list = type { ptr, ptr }

; Function Attrs: nounwind sspstrong uwtable
define dso_local ptr @qemu_text_console_get_label(ptr noundef %c) #0 {
entry:
  %c.addr = alloca ptr, align 8
  store ptr %c, ptr %c.addr, align 8
  %0 = load ptr, ptr %c.addr, align 8
  %chr = getelementptr inbounds %struct.QemuTextConsole, ptr %0, i32 0, i32 18
  %1 = load ptr, ptr %chr, align 8
  %tobool = icmp ne ptr %1, null
  br i1 %tobool, label %cond.true, label %cond.false

cond.true:                                        ; preds = %entry
  %2 = load ptr, ptr %c.addr, align 8
  %chr1 = getelementptr inbounds %struct.QemuTextConsole, ptr %2, i32 0, i32 18
  %3 = load ptr, ptr %chr1, align 8
  %label = getelementptr inbounds %struct.Chardev, ptr %3, i32 0, i32 3
  %4 = load ptr, ptr %label, align 8
  br label %cond.end

cond.false:                                       ; preds = %entry
  br label %cond.end

cond.end:                                         ; preds = %cond.false, %cond.true
  %cond = phi ptr [ %4, %cond.true ], [ null, %cond.false ]
  ret ptr %cond
}