; Function Attrs: mustprogress nofree norecurse nosync nounwind sspstrong willreturn memory(read, inaccessiblemem: none) uwtable
define dso_local ptr @qemu_text_console_get_label(ptr noundef readonly captures(none) %c) local_unnamed_addr #2 {
entry:
  %chr = getelementptr inbounds nuw i8, ptr %c, i64 312
  %0 = load ptr, ptr %chr, align 8
  %tobool.not = icmp eq ptr %0, null
  br i1 %tobool.not, label %cond.end, label %cond.true

cond.true:                                        ; preds = %entry
  %label = getelementptr inbounds nuw i8, ptr %0, i64 96
  %1 = load ptr, ptr %label, align 8
  br label %cond.end

cond.end:                                         ; preds = %entry, %cond.true
  %cond = phi ptr [ %1, %cond.true ], [ null, %entry ]
  ret ptr %cond
}